; Function Attrs: mustprogress nofree norecurse nosync nounwind willreturn memory(write, argmem: readwrite, inaccessiblemem: none) uwtable
define dso_local void @_ZN3net22QuicCryptoServerStream26CancelOutstandingCallbacksEv(ptr nocapture noundef nonnull align 8 dereferenceable(1328) %this) unnamed_addr #7 align 2 {
entry:
  %validate_client_hello_cb_ = getelementptr inbounds i8, ptr %this, i64 1208
  %0 = load ptr, ptr %validate_client_hello_cb_, align 8
  %cmp.not = icmp eq ptr %0, null
  br i1 %cmp.not, label %if.end, label %if.then

if.then:                                          ; preds = %entry
  %parent_.i = getelementptr inbounds i8, ptr %0, i64 8
  store ptr null, ptr %parent_.i, align 8
  store ptr null, ptr %validate_client_hello_cb_, align 8
  br label %if.end

if.end:                                           ; preds = %if.then, %entry
  %send_server_config_update_cb_ = getelementptr inbounds i8, ptr %this, i64 1232
  %1 = load ptr, ptr %send_server_config_update_cb_, align 8
  %cmp4.not = icmp eq ptr %1, null
  br i1 %cmp4.not, label %if.end8, label %if.then5

if.then5:                                         ; preds = %if.end
  %parent_.i2 = getelementptr inbounds i8, ptr %1, i64 8
  store ptr null, ptr %parent_.i2, align 8
  store ptr null, ptr %send_server_config_update_cb_, align 8
  br label %if.end8

if.end8:                                          ; preds = %if.then5, %if.end
  ret void
}